target datalayout = "e-m:e-p270:32:32-p271:32:32-p272:64:64-i64:64-i128:128-f80:128-n8:16:32:64-S128"
target triple = "x86_64-pc-linux-gnu"

; Function Attrs: nounwind willreturn memory(read) uwtable
define i64 @wcslen(ptr noundef %0) #0 {
  %2 = alloca ptr, align 8
  %3 = alloca ptr, align 8
  store ptr %0, ptr %2, align 8
  %4 = load ptr, ptr %2, align 8
  store ptr %4, ptr %3, align 8
  br label %5

5:                                                ; preds = %9, %1
  %6 = load ptr, ptr %3, align 8
  %7 = load i32, ptr %6, align 4
  %8 = icmp ne i32 %7, 0
  br i1 %8, label %9, label %12

9:                                                ; preds = %5
  %10 = load ptr, ptr %3, align 8
  %11 = getelementptr inbounds i32, ptr %10, i32 1
  store ptr %11, ptr %3, align 8
  br label %5, !llvm.loop !6

12:                                               ; preds = %5
  %13 = load ptr, ptr %3, align 8
  %14 = load ptr, ptr %2, align 8
  %15 = ptrtoint ptr %13 to i64
  %16 = ptrtoint ptr %14 to i64
  %17 = sub i64 %15, %16
  %18 = sdiv exact i64 %17, 4
  ret i64 %18
}


!llvm.module.flags = !{!0, !1, !2, !3, !4, !5}

!0 = !{i32 7, !"Dwarf Version", i32 5}
!1 = !{i32 2, !"Debug Info Version", i32 3}
!2 = !{i32 1, !"wchar_size", i32 4}
!3 = !{i32 8, !"PIC Level", i32 2}
!4 = !{i32 7, !"uwtable", i32 2}
!5 = !{i32 7, !"frame-pointer", i32 2}
!6 = distinct !{!6, !7}
!7 = !{!"llvm.loop.mustprogress"}
